(lp0
(lp1
F-0.4753637683943791
aF-1.5908027706503765
aF-2.637157969743924
aF-2.922238150202801
aF-2.304294481720299
aF-1.0187114309281808
aF0.44346411013757603
aF1.5237340340273962
aF1.8103717689304688
aF1.2361327196392713
aa(lp2
F-0.6580272809531876
aF-2.319330594677969
aF-4.174664837809319
aF-5.201643121726452
aF-4.9711085915381386
aF-3.5703836694076534
aF-1.5344952668892315
aF0.35892078465845034
aF1.38784709718794
aF1.2163090363434448
aa(lp3
F-0.1317746128038455
aF-0.7292871989869545
aF-2.0422828556483488
aF-3.729264590706361
aF-5.1601850054184375
aF-5.788762744513544
aF-5.374903497741563
aF-4.076686830468331
aF-2.3898268076098406
aF-0.95019282299933
aa(lp4
F0.6679771427742802
aF1.873799508322227
aF2.0138630734500573
aF0.2856173837953714
aF-2.731208212225342
aF-5.885900514819016
aF-7.973479820429574
aF-8.196566539246021
aF-6.471292407378556
aF-3.519528603864734
aa(lp5
F1.3666277848199821
aF4.279863718742259
aF6.128188978459788
aF5.030126049840659
aF1.2746686774411047
aF-3.706363871154842
aF-8.010395509469662
aF-9.993441604945687
aF-8.90064187267569
aF-5.272750385485827
aa(lp6
F1.6950238844569916
aF5.562636096554247
aF8.718343087917786
aF8.682051632042032
aF5.322513337333784
aF-0.08000690022346021
aF-5.461940189595694
aF-8.767581878313939
aF-8.737403540806321
aF-5.532572379545103
aa(lp7
F1.527718184369069
aF5.232105964982033
aF8.794921409977704
aF9.846432804972242
aF7.866160935702867
aF3.6080353084991414
aF-1.301493402032626
aF-4.987161492935257
aF-6.04386953104062
aF-4.19971511524218
aa(lp8
F0.9286272004845941
aF3.4145616960835485
aF6.3287320173396004
aF8.0785748610229
aF7.934063227426762
aF5.949060312329161
aF2.8817649761013815
aF-0.09622534099912472
aF-1.8489320569374585
aF-1.7833189607259103
aa(lp9
F0.12896675826582826
aF0.812014762955029
aF2.2740977133754012
aF4.066422988071315
aF5.508822791601871
aF6.050344216499029
aF5.484144209395904
aF4.0264921548608985
aF2.2341528912230517
aF0.786625065295707
aa(lp10
F-0.4922950477869752
aF-1.3396494068090499
aF-1.4310902835879495
aF-0.2465540762228905
aF1.8103180789360638
aF3.9547805471214694
aF5.367724427588843
aF5.509457285539505
aF4.326937577762356
aF2.320263909516382
aa.(lp0
(lp1
F0.003882841636718915
aF0.008117222836615756
aF-0.00030942922268874413
aF-0.02439813184788518
aF-0.05557879994658217
aF-0.08195374430597027
aF-0.09344867389459396
aF-0.0856729493271468
aF-0.06160571306753417
aF-0.030843874762589655
aa(lp2
F0.018187403625983305
aF0.054143976287199407
aF0.06882391418030691
aF0.03867200885283349
aF-0.026752569386348096
aF-0.10249929907282579
aF-0.15963563948285486
aF-0.17633757574270398
aF-0.14626099457835046
aF-0.08256813081987657
aa(lp3
F0.0337617378433309
aF0.11177817886642069
aF0.17687924705743963
aF0.17869967817036794
aF0.11360713387305321
aF0.006404123153233372
aF-0.10196165868730721
aF-0.17009837794395355
aF-0.17204100324522037
aF-0.11000224685712501
aa(lp4
F0.038033291710365236
aF0.1344659808038231
aF0.2365056443375709
aF0.2823803091883671
aF0.2517876504499739
aF0.15635426934311966
aF0.03253226661805559
aF-0.07238278413720733
aF-0.11838173290381518
aF-0.09110726563353663
aa(lp5
F0.028357378651709036
aF0.10944524031316051
aF0.21638597346834415
aF0.2977096866487987
aF0.32084950853927363
aF0.2769332715375479
aF0.18273536399237345
aF0.07423603553409834
aF-0.007165967020205367
aF-0.032648675101233204
aa(lp6
F0.00840377607355107
aF0.04616226018214774
aF0.12396228816236918
aF0.21846308476187795
aF0.29397237206070403
aF0.3216535649982285
aF0.2909334019174899
aF0.21354592181842574
aF0.11904340259253117
aF0.04303572185478555
aa(lp7
F-0.014206027635470582
aF-0.031211492571408206
aF-0.005463792043792368
aF0.07490831594553149
aF0.18142032069074948
aF0.27343144398005226
aF0.3157967096008578
aF0.2923341440666587
aF0.21203820672142346
aF0.10703696345838487
aa(lp8
F-0.03083582982732381
aF-0.09312166964790752
aF-0.1224552518152627
aF-0.0781203183741591
aF0.026186211997112456
aF0.15068818646352083
aF0.24783030740102166
aF0.2805077961496712
aF0.2362985006546554
aF0.13490911928934152
aa(lp9
F-0.035131510567373514
aF-0.11588920221377909
aF-0.18220740362464596
aF-0.1819272433344791
aF-0.1120733393799641
aF0.0007360552786312899
aF0.11341180731344083
aF0.18291583026250352
aF0.1827634852008553
aF0.11609331823382664
aa(lp10
F-0.02560247084748325
aF-0.09056579236490248
aF-0.15941847126689832
aF-0.1905494023703342
aF-0.17019942118738218
aF-0.10610203209038138
aF-0.0227401198397022
aF0.04804504840873703
aF0.07925956614559572
aF0.06114256134138783
aa.(lp0
(lp1
F0.0886226925452758
aF0.16330510582651853
aF0.176830831621518
aF0.17724342737122795
aF0.1772453837242327
aF0.1772453850902791
aF0.17724538372423274
aF0.17724342737122795
aF0.176830831621518
aF0.16330510582651853
aa(lp2
F0.029428195075688553
aF0.09711085960813332
aF0.15278149697400914
aF0.15272799187936445
aF0.09439097558735306
aF1.636136447312634e-17
aF-0.09439097558735311
aF-0.15272799187936448
aF-0.1527814969740091
aF-0.09711085960813332
aa(lp3
F0.08029375959865026
aF0.11646276268581883
aF0.04921633080500202
aF-0.049626213219165036
aF-0.12991803347413564
aF-0.16058751919757208
aF-0.12991803347413558
aF-0.04962621321916497
aF0.04921633080500204
aF0.11646276268581882
aa.(lp0
(lp1
F0.4076956364138602
aF0.2006011364559186
aF0.8928688878396089
aa(lp2
F0.7140112792449148
aF0.7038971112949861
aF1.320815991112123
aa(lp3
F0.6874721388399678
aF1.1418930211228968
aF0.6495591761181561
aa(lp4
F0.5845074329071228
aF1.1614213248013887
aF-0.3411233588756556
aa(lp5
F0.5050224088231186
aF0.7316067223983926
aF-1.1344465003485371
aa(lp6
F0.4813123636129496
aF0.016097779074238316
aF-1.4229045490425625
aa(lp7
F0.5224429650985534
aF-0.7118073951134831
aF-1.0962948221897713
aa(lp8
F0.6126945192341028
aF-1.1740746084290186
aF-0.2793925720524623
aa(lp9
F0.7156690999299373
aF-1.194421104826553
aF0.7113115890463666
aa(lp10
F0.7319338103368168
aF-0.7811091072536664
aF1.3600670131344752
aa.