(lp0
(lp1
F-20.427724841771497
aF-22.444233783518854
aF-22.195230316308113
aF-19.271738061959894
aF-13.868956134632086
aF-6.809393082537421
aF0.6564854171246352
aF7.207711290847078
aF11.830018548053044
aF14.066949469326394
aa(lp2
F-14.486992754978779
aF-16.33199931392068
aF-16.769574420590487
aF-15.46536464862652
aF-12.460251942403302
aF-8.205060789936432
aF-3.4533503584090894
aF0.9539499360132454
aF4.328721751696811
aF6.307769198574765
aa(lp3
F-5.829797528775643
aF-7.230070498966458
aF-8.379895657423983
aF-9.074506120798329
aF-9.175714563061216
aF-8.654880057618126
aF-7.6039363319765645
aF-6.20920099974216
aF-4.698069856694866
aF-3.2792451265684526
aa(lp4
F3.476463494465979
aF2.7330062482553443
aF1.0819862498891433
aF-1.4302715180607313
aF-4.515122381874635
aF-7.6855456260435595
aF-10.379554659669097
aF-12.120957713692716
aF-12.655204939043523
aF-12.007844197186616
aa(lp5
F10.83939932795617
aF10.838403218692822
aF9.12046632732522
aF5.582684929718188
aF0.5803374603080688
aF-5.107976472057658
aF-10.474313365303736
aF-14.569615818368298
aF-16.774598143507802
aF-16.948592491693386
aa(lp6
F14.070261362677485
aF14.7425888588611
aF13.509419335147033
aF10.165121854667813
aF5.0124679712713585
aF-1.1528677418300495
aF-7.238631282353146
aF-12.168268909851
aF-15.188276323966965
aF-16.05180236870078
aa(lp7
F12.234870719740869
aF13.378308612519659
aF13.132564045377773
aF11.258877563023708
aF7.889062315628702
aF3.536773574925764
aF-1.0271884148014667
aF-4.995183202846779
aF-7.753386234270533
aF-9.033599706210914
aa(lp8
F6.0203664739650815
aF7.363178487571881
aF8.39592145420907
aF8.917259385893903
aF8.808466367594967
aF8.073577442341838
aF6.842274072016512
aF5.332949117380766
aF3.7901969442952543
aF2.4209530166005466
aa(lp9
F-2.5609632410614434
aF-1.2804466745230927
aF1.0182780805966476
aF4.2217414502034565
aF7.944672531357316
aF11.595091047958011
aF14.525564953626679
aF16.218513250278463
aF16.433747663359373
aF15.261299635948147
aa(lp10
F-10.97933265886332
aF-9.947687281238515
aF-6.684756379763152
aF-1.1976738060026169
aF5.910975643787593
aF13.524402787181577
aF20.29296461943742
aF25.02026575310774
aF27.004460730597355
aF26.2029132467602
aa.(lp0
(lp1
F-0.4726041142506351
aF-0.6543048276553458
aF-0.8483816525703218
aF-1.0309237526349162
aF-1.1746892160845799
aF-1.255606288026883
aF-1.259282293159389
aF-1.1851344244426583
aF-1.0465374531645113
aF-0.8669381805207446
aa(lp2
F-0.23239426888374032
aF-0.3415068056682524
aF-0.46622157155148714
aF-0.5926828042969833
aF-0.7028523207589332
aF-0.7785733896078831
aF-0.8063989996840553
aF-0.7814453304122414
aF-0.7087754042147895
aF-0.6017819756854716
aa(lp3
F0.06942690536376464
aF0.05683354135715033
aF0.02714247903740747
aF-0.01898858935347724
aF-0.07633380634431206
aF-0.13586744494489944
aF-0.18704293299117816
aF-0.2208080453399731
aF-0.23218909255671893
aF-0.22144517370726877
aa(lp4
F0.3496392432184815
aF0.43230976025123474
aF0.49921700977667066
aF0.5381652392561178
aF0.5411569852806959
aF0.5069324755099098
aF0.44152302697105794
aF0.35653548683315833
aF0.2658285640796916
aF0.18186961376153424
aa(lp5
F0.5162038464141759
aF0.6636643260192844
aF0.8000851491976133
aF0.9047636693583295
aF0.9599247972875575
aF0.9555846573835174
aF0.8924598657401444
aF0.7817770990957364
aF0.6420513243848867
aF0.49408431909891937
aa(lp6
F0.5032983029199671
aF0.6626865774715222
aF0.8188294314565752
aF0.9498842969305128
aF1.03485282281086
aF1.0590078933767073
aF1.0180160303659835
aF0.9191913234178479
aF0.7793899382767462
aF0.6203655773040158
aa(lp7
F0.29941065862309074
aF0.4114909766420221
aF0.5299515074667366
aF0.639965911618371
aF0.7249879869234132
aF0.7707373605725902
aF0.769073324040184
aF0.7203321743048072
aF0.6332195947963073
aF0.5223039812931074
aa(lp8
F-0.04556831144985424
aF-0.027394780169798866
aF0.00677138881467223
aF0.055446776631201955
aF0.1128741445160378
aF0.16996133308592914
aF0.21659301915542906
aF0.24452321042895736
aF0.2497285828498481
aF0.23331322139038133
aa(lp9
F-0.4384022122851742
aF-0.5338721483079685
aF-0.6056344560925013
aF-0.6392664358976486
aF-0.6266636129499117
aF-0.5688646280932188
aF-0.4760708274544805
aF-0.3647402521519896
aF-0.25287705554107315
aF-0.15534177673966787
aa(lp10
F-0.7773261237402624
aF-0.9753703159643266
aF-1.1452301139666148
aF-1.2582790564547601
aF-1.2933900269952567
aF-1.2432059795094672
aF-1.1165436943489286
aF-0.9358934345201375
aF-0.7309748599971976
aF-0.53084896796697
aa.(lp0
F-0.06598764879847274
aF-0.33624010087029876
aF-0.594147777264625
aF-0.7466706398128127
aF-0.7118651717079794
aF-0.4540661127240986
aF-0.004816687542725351
aF0.5422577868874756
aF1.0620841897410556
aF1.440998593183853
a.